target datalayout = "e-m:e-p270:32:32-p271:32:32-p272:64:64-i64:64-i128:128-f80:128-n8:16:32:64-S128"
target triple = "x86_64-pc-linux-gnu"

%"class.std::map" = type { %"class.std::_Rb_tree" }
%"class.std::_Rb_tree" = type { %"struct.std::_Rb_tree<llm_arch, std::pair<const llm_arch, const char *>, std::_Select1st<std::pair<const llm_arch, const char *>>, std::less<llm_arch>>::_Rb_tree_impl" }
%"struct.std::_Rb_tree<llm_arch, std::pair<const llm_arch, const char *>, std::_Select1st<std::pair<const llm_arch, const char *>>, std::less<llm_arch>>::_Rb_tree_impl" = type { [8 x i8], %"struct.std::_Rb_tree_header" }
%"struct.std::_Rb_tree_header" = type { %"struct.std::_Rb_tree_node_base", i64 }
%"struct.std::_Rb_tree_node_base" = type { i32, ptr, ptr, ptr }
%"struct.std::pair" = type { i32, ptr }
%"struct.std::_Rb_tree_const_iterator.56" = type { ptr }
%"struct.std::_Rb_tree_node" = type { %"struct.std::_Rb_tree_node_base", %"struct.__gnu_cxx::__aligned_membuf" }
%"struct.__gnu_cxx::__aligned_membuf" = type { [16 x i8] }
%"struct.std::_Select1st" = type { i8 }

@_ZL14LLM_ARCH_NAMES = internal global %"class.std::map" zeroinitializer, align 8
@.str.363 = private unnamed_addr constant [8 x i8] c"unknown\00", align 1

; Function Attrs: mustprogress nounwind uwtable
define linkonce_odr noundef nonnull align 4 dereferenceable(4) ptr @_ZNKSt10_Select1stISt4pairIK8llm_archPKcEEclERKS5_(ptr noundef nonnull align 1 dereferenceable(1) %0, ptr noundef nonnull align 8 dereferenceable(16) %1) #3 comdat align 2 {
  %3 = alloca ptr, align 8
  %4 = alloca ptr, align 8
  store ptr %0, ptr %3, align 8, !tbaa !240
  store ptr %1, ptr %4, align 8, !tbaa !133
  %5 = load ptr, ptr %4, align 8, !tbaa !133
  %6 = getelementptr inbounds nuw %"struct.std::pair", ptr %5, i32 0, i32 0
  ret ptr %6
}

; Function Attrs: mustprogress nounwind uwtable
define linkonce_odr noundef ptr @_ZNK9__gnu_cxx16__aligned_membufISt4pairIK8llm_archPKcEE7_M_addrEv(ptr noundef nonnull align 8 dereferenceable(16) %0) #3 comdat align 2 {
  %2 = alloca ptr, align 8
  store ptr %0, ptr %2, align 8, !tbaa !148
  %3 = load ptr, ptr %2, align 8
  %4 = getelementptr inbounds nuw %"struct.__gnu_cxx::__aligned_membuf", ptr %3, i32 0, i32 0
  ret ptr %4
}

; Function Attrs: mustprogress nounwind uwtable
define linkonce_odr noundef ptr @_ZNSt8_Rb_treeI8llm_archSt4pairIKS0_PKcESt10_Select1stIS5_ESt4lessIS0_ESaIS5_EE8_S_rightEPKSt18_Rb_tree_node_base(ptr noundef %0) #3 comdat align 2 {
  %2 = alloca ptr, align 8
  store ptr %0, ptr %2, align 8, !tbaa !141
  %3 = load ptr, ptr %2, align 8, !tbaa !141
  %4 = getelementptr inbounds nuw %"struct.std::_Rb_tree_node_base", ptr %3, i32 0, i32 3
  %5 = load ptr, ptr %4, align 8, !tbaa !142
  ret ptr %5
}

; Function Attrs: mustprogress nounwind uwtable
define linkonce_odr noundef ptr @_ZNSt8_Rb_treeI8llm_archSt4pairIKS0_PKcESt10_Select1stIS5_ESt4lessIS0_ESaIS5_EE7_S_leftEPKSt18_Rb_tree_node_base(ptr noundef %0) #3 comdat align 2 {
  %2 = alloca ptr, align 8
  store ptr %0, ptr %2, align 8, !tbaa !141
  %3 = load ptr, ptr %2, align 8, !tbaa !141
  %4 = getelementptr inbounds nuw %"struct.std::_Rb_tree_node_base", ptr %3, i32 0, i32 2
  %5 = load ptr, ptr %4, align 8, !tbaa !143
  ret ptr %5
}

; Function Attrs: mustprogress uwtable
define linkonce_odr noundef nonnull align 4 dereferenceable(4) ptr @_ZNSt8_Rb_treeI8llm_archSt4pairIKS0_PKcESt10_Select1stIS5_ESt4lessIS0_ESaIS5_EE6_S_keyEPKSt13_Rb_tree_nodeIS5_E(ptr noundef %0) #4 comdat align 2 {
  %2 = alloca ptr, align 8
  %3 = alloca %"struct.std::_Select1st", align 1
  store ptr %0, ptr %2, align 8, !tbaa !137
  call void @llvm.lifetime.start.p0(i64 1, ptr %3) #5
  %4 = load ptr, ptr %2, align 8, !tbaa !137
  %5 = call noundef ptr @_ZNKSt13_Rb_tree_nodeISt4pairIK8llm_archPKcEE9_M_valptrEv(ptr noundef nonnull align 8 dereferenceable(48) %4)
  %6 = call noundef nonnull align 4 dereferenceable(4) ptr @_ZNKSt10_Select1stISt4pairIK8llm_archPKcEEclERKS5_(ptr noundef nonnull align 1 dereferenceable(1) %3, ptr noundef nonnull align 8 dereferenceable(16) %5)
  call void @llvm.lifetime.end.p0(i64 1, ptr %3) #5
  ret ptr %6
}

; Function Attrs: mustprogress nounwind uwtable
define linkonce_odr noundef ptr @_ZNK9__gnu_cxx16__aligned_membufISt4pairIK8llm_archPKcEE6_M_ptrEv(ptr noundef nonnull align 8 dereferenceable(16) %0) #3 comdat align 2 {
  %2 = alloca ptr, align 8
  store ptr %0, ptr %2, align 8, !tbaa !148
  %3 = load ptr, ptr %2, align 8
  %4 = call noundef ptr @_ZNK9__gnu_cxx16__aligned_membufISt4pairIK8llm_archPKcEE7_M_addrEv(ptr noundef nonnull align 8 dereferenceable(16) %3) #5
  ret ptr %4
}

; Function Attrs: mustprogress nounwind uwtable
define linkonce_odr void @_ZNSt23_Rb_tree_const_iteratorISt4pairIK8llm_archPKcEEC2EPKSt18_Rb_tree_node_base(ptr noundef nonnull align 8 dereferenceable(8) %0, ptr noundef %1) unnamed_addr #3 comdat align 2 {
  %3 = alloca ptr, align 8
  %4 = alloca ptr, align 8
  store ptr %0, ptr %3, align 8, !tbaa !129
  store ptr %1, ptr %4, align 8, !tbaa !141
  %5 = load ptr, ptr %3, align 8
  %6 = getelementptr inbounds nuw %"struct.std::_Rb_tree_const_iterator.56", ptr %5, i32 0, i32 0
  %7 = load ptr, ptr %4, align 8, !tbaa !141
  store ptr %7, ptr %6, align 8, !tbaa !131
  ret void
}

; Function Attrs: mustprogress nounwind uwtable
define linkonce_odr noundef zeroext i1 @_ZNKSt4lessI8llm_archEclERKS0_S3_(ptr noundef nonnull align 1 dereferenceable(1) %0, ptr noundef nonnull align 4 dereferenceable(4) %1, ptr noundef nonnull align 4 dereferenceable(4) %2) #3 comdat align 2 {
  %4 = alloca ptr, align 8
  %5 = alloca ptr, align 8
  %6 = alloca ptr, align 8
  store ptr %0, ptr %4, align 8, !tbaa !17
  store ptr %1, ptr %5, align 8, !tbaa !68
  store ptr %2, ptr %6, align 8, !tbaa !68
  %7 = load ptr, ptr %5, align 8, !tbaa !68
  %8 = load i32, ptr %7, align 4, !tbaa !34
  %9 = load ptr, ptr %6, align 8, !tbaa !68
  %10 = load i32, ptr %9, align 4, !tbaa !34
  %11 = icmp slt i32 %8, %10
  ret i1 %11
}

; Function Attrs: mustprogress uwtable
define linkonce_odr noundef nonnull align 4 dereferenceable(4) ptr @_ZNSt8_Rb_treeI8llm_archSt4pairIKS0_PKcESt10_Select1stIS5_ESt4lessIS0_ESaIS5_EE6_S_keyEPKSt18_Rb_tree_node_base(ptr noundef %0) #4 comdat align 2 {
  %2 = alloca ptr, align 8
  store ptr %0, ptr %2, align 8, !tbaa !141
  %3 = load ptr, ptr %2, align 8, !tbaa !141
  %4 = call noundef nonnull align 4 dereferenceable(4) ptr @_ZNSt8_Rb_treeI8llm_archSt4pairIKS0_PKcESt10_Select1stIS5_ESt4lessIS0_ESaIS5_EE6_S_keyEPKSt13_Rb_tree_nodeIS5_E(ptr noundef %3)
  ret ptr %4
}

; Function Attrs: mustprogress uwtable
define linkonce_odr ptr @_ZNKSt8_Rb_treeI8llm_archSt4pairIKS0_PKcESt10_Select1stIS5_ESt4lessIS0_ESaIS5_EE14_M_lower_boundEPKSt13_Rb_tree_nodeIS5_EPKSt18_Rb_tree_node_baseRS2_(ptr noundef nonnull align 8 dereferenceable(48) %0, ptr noundef %1, ptr noundef %2, ptr noundef nonnull align 4 dereferenceable(4) %3) #4 comdat align 2 {
  %5 = alloca %"struct.std::_Rb_tree_const_iterator.56", align 8
  %6 = alloca ptr, align 8
  %7 = alloca ptr, align 8
  %8 = alloca ptr, align 8
  %9 = alloca ptr, align 8
  store ptr %0, ptr %6, align 8, !tbaa !135
  store ptr %1, ptr %7, align 8, !tbaa !137
  store ptr %2, ptr %8, align 8, !tbaa !141
  store ptr %3, ptr %9, align 8, !tbaa !68
  %10 = load ptr, ptr %6, align 8
  br label %11

11:                                               ; preds = %27, %4
  %12 = load ptr, ptr %7, align 8, !tbaa !137
  %13 = icmp ne ptr %12, null
  br i1 %13, label %14, label %28

14:                                               ; preds = %11
  %15 = getelementptr inbounds nuw %"class.std::_Rb_tree", ptr %10, i32 0, i32 0
  %16 = load ptr, ptr %7, align 8, !tbaa !137
  %17 = call noundef nonnull align 4 dereferenceable(4) ptr @_ZNSt8_Rb_treeI8llm_archSt4pairIKS0_PKcESt10_Select1stIS5_ESt4lessIS0_ESaIS5_EE6_S_keyEPKSt13_Rb_tree_nodeIS5_E(ptr noundef %16)
  %18 = load ptr, ptr %9, align 8, !tbaa !68
  %19 = call noundef zeroext i1 @_ZNKSt4lessI8llm_archEclERKS0_S3_(ptr noundef nonnull align 1 dereferenceable(1) %15, ptr noundef nonnull align 4 dereferenceable(4) %17, ptr noundef nonnull align 4 dereferenceable(4) %18)
  br i1 %19, label %24, label %20

20:                                               ; preds = %14
  %21 = load ptr, ptr %7, align 8, !tbaa !137
  store ptr %21, ptr %8, align 8, !tbaa !141
  %22 = load ptr, ptr %7, align 8, !tbaa !137
  %23 = call noundef ptr @_ZNSt8_Rb_treeI8llm_archSt4pairIKS0_PKcESt10_Select1stIS5_ESt4lessIS0_ESaIS5_EE7_S_leftEPKSt18_Rb_tree_node_base(ptr noundef %22) #5
  store ptr %23, ptr %7, align 8, !tbaa !137
  br label %27

24:                                               ; preds = %14
  %25 = load ptr, ptr %7, align 8, !tbaa !137
  %26 = call noundef ptr @_ZNSt8_Rb_treeI8llm_archSt4pairIKS0_PKcESt10_Select1stIS5_ESt4lessIS0_ESaIS5_EE8_S_rightEPKSt18_Rb_tree_node_base(ptr noundef %25) #5
  store ptr %26, ptr %7, align 8, !tbaa !137
  br label %27

27:                                               ; preds = %24, %20
  br label %11, !llvm.loop !337

28:                                               ; preds = %11
  %29 = load ptr, ptr %8, align 8, !tbaa !141
  call void @_ZNSt23_Rb_tree_const_iteratorISt4pairIK8llm_archPKcEEC2EPKSt18_Rb_tree_node_base(ptr noundef nonnull align 8 dereferenceable(8) %5, ptr noundef %29) #5
  %30 = getelementptr inbounds nuw %"struct.std::_Rb_tree_const_iterator.56", ptr %5, i32 0, i32 0
  %31 = load ptr, ptr %30, align 8
  ret ptr %31
}

; Function Attrs: mustprogress nounwind uwtable
define linkonce_odr noundef ptr @_ZNKSt8_Rb_treeI8llm_archSt4pairIKS0_PKcESt10_Select1stIS5_ESt4lessIS0_ESaIS5_EE6_M_endEv(ptr noundef nonnull align 8 dereferenceable(48) %0) #3 comdat align 2 {
  %2 = alloca ptr, align 8
  store ptr %0, ptr %2, align 8, !tbaa !135
  %3 = load ptr, ptr %2, align 8
  %4 = getelementptr inbounds nuw %"class.std::_Rb_tree", ptr %3, i32 0, i32 0
  %5 = getelementptr inbounds i8, ptr %4, i64 8
  %6 = getelementptr inbounds nuw %"struct.std::_Rb_tree_header", ptr %5, i32 0, i32 0
  ret ptr %6
}

; Function Attrs: mustprogress nounwind uwtable
define linkonce_odr noundef ptr @_ZNKSt8_Rb_treeI8llm_archSt4pairIKS0_PKcESt10_Select1stIS5_ESt4lessIS0_ESaIS5_EE8_M_beginEv(ptr noundef nonnull align 8 dereferenceable(48) %0) #3 comdat align 2 {
  %2 = alloca ptr, align 8
  store ptr %0, ptr %2, align 8, !tbaa !135
  %3 = load ptr, ptr %2, align 8
  %4 = getelementptr inbounds nuw %"class.std::_Rb_tree", ptr %3, i32 0, i32 0
  %5 = getelementptr inbounds i8, ptr %4, i64 8
  %6 = getelementptr inbounds nuw %"struct.std::_Rb_tree_header", ptr %5, i32 0, i32 0
  %7 = getelementptr inbounds nuw %"struct.std::_Rb_tree_node_base", ptr %6, i32 0, i32 1
  %8 = load ptr, ptr %7, align 8, !tbaa !151
  ret ptr %8
}

; Function Attrs: mustprogress nounwind uwtable
define linkonce_odr noundef ptr @_ZNKSt13_Rb_tree_nodeISt4pairIK8llm_archPKcEE9_M_valptrEv(ptr noundef nonnull align 8 dereferenceable(48) %0) #3 comdat align 2 {
  %2 = alloca ptr, align 8
  store ptr %0, ptr %2, align 8, !tbaa !137
  %3 = load ptr, ptr %2, align 8
  %4 = getelementptr inbounds nuw %"struct.std::_Rb_tree_node", ptr %3, i32 0, i32 1
  %5 = call noundef ptr @_ZNK9__gnu_cxx16__aligned_membufISt4pairIK8llm_archPKcEE6_M_ptrEv(ptr noundef nonnull align 8 dereferenceable(16) %4) #5
  ret ptr %5
}

; Function Attrs: mustprogress nounwind uwtable
define linkonce_odr ptr @_ZNKSt8_Rb_treeI8llm_archSt4pairIKS0_PKcESt10_Select1stIS5_ESt4lessIS0_ESaIS5_EE3endEv(ptr noundef nonnull align 8 dereferenceable(48) %0) #3 comdat align 2 {
  %2 = alloca %"struct.std::_Rb_tree_const_iterator.56", align 8
  %3 = alloca ptr, align 8
  store ptr %0, ptr %3, align 8, !tbaa !135
  %4 = load ptr, ptr %3, align 8
  %5 = getelementptr inbounds nuw %"class.std::_Rb_tree", ptr %4, i32 0, i32 0
  %6 = getelementptr inbounds i8, ptr %5, i64 8
  %7 = getelementptr inbounds nuw %"struct.std::_Rb_tree_header", ptr %6, i32 0, i32 0
  call void @_ZNSt23_Rb_tree_const_iteratorISt4pairIK8llm_archPKcEEC2EPKSt18_Rb_tree_node_base(ptr noundef nonnull align 8 dereferenceable(8) %2, ptr noundef %7) #5
  %8 = getelementptr inbounds nuw %"struct.std::_Rb_tree_const_iterator.56", ptr %2, i32 0, i32 0
  %9 = load ptr, ptr %8, align 8
  ret ptr %9
}

; Function Attrs: mustprogress uwtable
define linkonce_odr ptr @_ZNKSt8_Rb_treeI8llm_archSt4pairIKS0_PKcESt10_Select1stIS5_ESt4lessIS0_ESaIS5_EE4findERS2_(ptr noundef nonnull align 8 dereferenceable(48) %0, ptr noundef nonnull align 4 dereferenceable(4) %1) #4 comdat align 2 {
  %3 = alloca %"struct.std::_Rb_tree_const_iterator.56", align 8
  %4 = alloca ptr, align 8
  %5 = alloca ptr, align 8
  %6 = alloca %"struct.std::_Rb_tree_const_iterator.56", align 8
  %7 = alloca %"struct.std::_Rb_tree_const_iterator.56", align 8
  store ptr %0, ptr %4, align 8, !tbaa !135
  store ptr %1, ptr %5, align 8, !tbaa !68
  %8 = load ptr, ptr %4, align 8
  call void @llvm.lifetime.start.p0(i64 8, ptr %6) #5
  %9 = call noundef ptr @_ZNKSt8_Rb_treeI8llm_archSt4pairIKS0_PKcESt10_Select1stIS5_ESt4lessIS0_ESaIS5_EE8_M_beginEv(ptr noundef nonnull align 8 dereferenceable(48) %8) #5
  %10 = call noundef ptr @_ZNKSt8_Rb_treeI8llm_archSt4pairIKS0_PKcESt10_Select1stIS5_ESt4lessIS0_ESaIS5_EE6_M_endEv(ptr noundef nonnull align 8 dereferenceable(48) %8) #5
  %11 = load ptr, ptr %5, align 8, !tbaa !68
  %12 = call ptr @_ZNKSt8_Rb_treeI8llm_archSt4pairIKS0_PKcESt10_Select1stIS5_ESt4lessIS0_ESaIS5_EE14_M_lower_boundEPKSt13_Rb_tree_nodeIS5_EPKSt18_Rb_tree_node_baseRS2_(ptr noundef nonnull align 8 dereferenceable(48) %8, ptr noundef %9, ptr noundef %10, ptr noundef nonnull align 4 dereferenceable(4) %11)
  %13 = getelementptr inbounds nuw %"struct.std::_Rb_tree_const_iterator.56", ptr %6, i32 0, i32 0
  store ptr %12, ptr %13, align 8
  call void @llvm.lifetime.start.p0(i64 8, ptr %7) #5
  %14 = call ptr @_ZNKSt8_Rb_treeI8llm_archSt4pairIKS0_PKcESt10_Select1stIS5_ESt4lessIS0_ESaIS5_EE3endEv(ptr noundef nonnull align 8 dereferenceable(48) %8) #5
  %15 = getelementptr inbounds nuw %"struct.std::_Rb_tree_const_iterator.56", ptr %7, i32 0, i32 0
  store ptr %14, ptr %15, align 8
  %16 = call noundef zeroext i1 @_ZSteqRKSt23_Rb_tree_const_iteratorISt4pairIK8llm_archPKcEES8_(ptr noundef nonnull align 8 dereferenceable(8) %6, ptr noundef nonnull align 8 dereferenceable(8) %7) #5
  br i1 %16, label %24, label %17

17:                                               ; preds = %2
  %18 = getelementptr inbounds nuw %"class.std::_Rb_tree", ptr %8, i32 0, i32 0
  %19 = load ptr, ptr %5, align 8, !tbaa !68
  %20 = getelementptr inbounds nuw %"struct.std::_Rb_tree_const_iterator.56", ptr %6, i32 0, i32 0
  %21 = load ptr, ptr %20, align 8, !tbaa !131
  %22 = call noundef nonnull align 4 dereferenceable(4) ptr @_ZNSt8_Rb_treeI8llm_archSt4pairIKS0_PKcESt10_Select1stIS5_ESt4lessIS0_ESaIS5_EE6_S_keyEPKSt18_Rb_tree_node_base(ptr noundef %21)
  %23 = call noundef zeroext i1 @_ZNKSt4lessI8llm_archEclERKS0_S3_(ptr noundef nonnull align 1 dereferenceable(1) %18, ptr noundef nonnull align 4 dereferenceable(4) %19, ptr noundef nonnull align 4 dereferenceable(4) %22)
  br i1 %23, label %24, label %27

24:                                               ; preds = %17, %2
  %25 = call ptr @_ZNKSt8_Rb_treeI8llm_archSt4pairIKS0_PKcESt10_Select1stIS5_ESt4lessIS0_ESaIS5_EE3endEv(ptr noundef nonnull align 8 dereferenceable(48) %8) #5
  %26 = getelementptr inbounds nuw %"struct.std::_Rb_tree_const_iterator.56", ptr %3, i32 0, i32 0
  store ptr %25, ptr %26, align 8
  br label %28

27:                                               ; preds = %17
  call void @llvm.memcpy.p0.p0.i64(ptr align 8 %3, ptr align 8 %6, i64 8, i1 false), !tbaa.struct !232
  br label %28

28:                                               ; preds = %27, %24
  call void @llvm.lifetime.end.p0(i64 8, ptr %7) #5
  call void @llvm.lifetime.end.p0(i64 8, ptr %6) #5
  %29 = getelementptr inbounds nuw %"struct.std::_Rb_tree_const_iterator.56", ptr %3, i32 0, i32 0
  %30 = load ptr, ptr %29, align 8
  ret ptr %30
}

; Function Attrs: mustprogress nounwind uwtable
define linkonce_odr noundef ptr @_ZNKSt23_Rb_tree_const_iteratorISt4pairIK8llm_archPKcEEptEv(ptr noundef nonnull align 8 dereferenceable(8) %0) #3 comdat align 2 {
  %2 = alloca ptr, align 8
  store ptr %0, ptr %2, align 8, !tbaa !129
  %3 = load ptr, ptr %2, align 8
  %4 = getelementptr inbounds nuw %"struct.std::_Rb_tree_const_iterator.56", ptr %3, i32 0, i32 0
  %5 = load ptr, ptr %4, align 8, !tbaa !131
  %6 = call noundef ptr @_ZNKSt13_Rb_tree_nodeISt4pairIK8llm_archPKcEE9_M_valptrEv(ptr noundef nonnull align 8 dereferenceable(48) %5)
  ret ptr %6
}

; Function Attrs: mustprogress nounwind uwtable
define linkonce_odr noundef zeroext i1 @_ZSteqRKSt23_Rb_tree_const_iteratorISt4pairIK8llm_archPKcEES8_(ptr noundef nonnull align 8 dereferenceable(8) %0, ptr noundef nonnull align 8 dereferenceable(8) %1) #3 comdat {
  %3 = alloca ptr, align 8
  %4 = alloca ptr, align 8
  store ptr %0, ptr %3, align 8, !tbaa !129
  store ptr %1, ptr %4, align 8, !tbaa !129
  %5 = load ptr, ptr %3, align 8, !tbaa !129
  %6 = getelementptr inbounds nuw %"struct.std::_Rb_tree_const_iterator.56", ptr %5, i32 0, i32 0
  %7 = load ptr, ptr %6, align 8, !tbaa !131
  %8 = load ptr, ptr %4, align 8, !tbaa !129
  %9 = getelementptr inbounds nuw %"struct.std::_Rb_tree_const_iterator.56", ptr %8, i32 0, i32 0
  %10 = load ptr, ptr %9, align 8, !tbaa !131
  %11 = icmp eq ptr %7, %10
  ret i1 %11
}

; Function Attrs: mustprogress nounwind uwtable
define linkonce_odr ptr @_ZNKSt3mapI8llm_archPKcSt4lessIS0_ESaISt4pairIKS0_S2_EEE3endEv(ptr noundef nonnull align 8 dereferenceable(48) %0) #3 comdat align 2 {
  %2 = alloca %"struct.std::_Rb_tree_const_iterator.56", align 8
  %3 = alloca ptr, align 8
  store ptr %0, ptr %3, align 8, !tbaa !15
  %4 = load ptr, ptr %3, align 8
  %5 = getelementptr inbounds nuw %"class.std::map", ptr %4, i32 0, i32 0
  %6 = call ptr @_ZNKSt8_Rb_treeI8llm_archSt4pairIKS0_PKcESt10_Select1stIS5_ESt4lessIS0_ESaIS5_EE3endEv(ptr noundef nonnull align 8 dereferenceable(48) %5) #5
  %7 = getelementptr inbounds nuw %"struct.std::_Rb_tree_const_iterator.56", ptr %2, i32 0, i32 0
  store ptr %6, ptr %7, align 8
  %8 = getelementptr inbounds nuw %"struct.std::_Rb_tree_const_iterator.56", ptr %2, i32 0, i32 0
  %9 = load ptr, ptr %8, align 8
  ret ptr %9
}

; Function Attrs: mustprogress uwtable
define linkonce_odr ptr @_ZNKSt3mapI8llm_archPKcSt4lessIS0_ESaISt4pairIKS0_S2_EEE4findERS6_(ptr noundef nonnull align 8 dereferenceable(48) %0, ptr noundef nonnull align 4 dereferenceable(4) %1) #4 comdat align 2 {
  %3 = alloca %"struct.std::_Rb_tree_const_iterator.56", align 8
  %4 = alloca ptr, align 8
  %5 = alloca ptr, align 8
  store ptr %0, ptr %4, align 8, !tbaa !15
  store ptr %1, ptr %5, align 8, !tbaa !68
  %6 = load ptr, ptr %4, align 8
  %7 = getelementptr inbounds nuw %"class.std::map", ptr %6, i32 0, i32 0
  %8 = load ptr, ptr %5, align 8, !tbaa !68
  %9 = call ptr @_ZNKSt8_Rb_treeI8llm_archSt4pairIKS0_PKcESt10_Select1stIS5_ESt4lessIS0_ESaIS5_EE4findERS2_(ptr noundef nonnull align 8 dereferenceable(48) %7, ptr noundef nonnull align 4 dereferenceable(4) %8)
  %10 = getelementptr inbounds nuw %"struct.std::_Rb_tree_const_iterator.56", ptr %3, i32 0, i32 0
  store ptr %9, ptr %10, align 8
  %11 = getelementptr inbounds nuw %"struct.std::_Rb_tree_const_iterator.56", ptr %3, i32 0, i32 0
  %12 = load ptr, ptr %11, align 8
  ret ptr %12
}

; Function Attrs: mustprogress uwtable
define noundef ptr @_Z13llm_arch_name8llm_arch(i32 noundef %0) #4 {
  %2 = alloca ptr, align 8
  %3 = alloca i32, align 4
  %4 = alloca %"struct.std::_Rb_tree_const_iterator.56", align 8
  %5 = alloca %"struct.std::_Rb_tree_const_iterator.56", align 8
  %6 = alloca i32, align 4
  store i32 %0, ptr %3, align 4, !tbaa !34
  call void @llvm.lifetime.start.p0(i64 8, ptr %4) #5
  %7 = call ptr @_ZNKSt3mapI8llm_archPKcSt4lessIS0_ESaISt4pairIKS0_S2_EEE4findERS6_(ptr noundef nonnull align 8 dereferenceable(48) @_ZL14LLM_ARCH_NAMES, ptr noundef nonnull align 4 dereferenceable(4) %3)
  %8 = getelementptr inbounds nuw %"struct.std::_Rb_tree_const_iterator.56", ptr %4, i32 0, i32 0
  store ptr %7, ptr %8, align 8
  call void @llvm.lifetime.start.p0(i64 8, ptr %5) #5
  %9 = call ptr @_ZNKSt3mapI8llm_archPKcSt4lessIS0_ESaISt4pairIKS0_S2_EEE3endEv(ptr noundef nonnull align 8 dereferenceable(48) @_ZL14LLM_ARCH_NAMES) #5
  %10 = getelementptr inbounds nuw %"struct.std::_Rb_tree_const_iterator.56", ptr %5, i32 0, i32 0
  store ptr %9, ptr %10, align 8
  %11 = call noundef zeroext i1 @_ZSteqRKSt23_Rb_tree_const_iteratorISt4pairIK8llm_archPKcEES8_(ptr noundef nonnull align 8 dereferenceable(8) %4, ptr noundef nonnull align 8 dereferenceable(8) %5) #5
  call void @llvm.lifetime.end.p0(i64 8, ptr %5) #5
  br i1 %11, label %12, label %13

12:                                               ; preds = %1
  store ptr @.str.363, ptr %2, align 8
  store i32 1, ptr %6, align 4
  br label %17

13:                                               ; preds = %1
  %14 = call noundef ptr @_ZNKSt23_Rb_tree_const_iteratorISt4pairIK8llm_archPKcEEptEv(ptr noundef nonnull align 8 dereferenceable(8) %4) #5
  %15 = getelementptr inbounds nuw %"struct.std::pair", ptr %14, i32 0, i32 1
  %16 = load ptr, ptr %15, align 8, !tbaa !127
  store ptr %16, ptr %2, align 8
  store i32 1, ptr %6, align 4
  br label %17

17:                                               ; preds = %13, %12
  call void @llvm.lifetime.end.p0(i64 8, ptr %4) #5
  %18 = load ptr, ptr %2, align 8
  ret ptr %18
}