; Function Attrs: mustprogress nofree norecurse nosync nounwind willreturn memory(read, inaccessiblemem: none) uwtable
define noundef ptr @_Z13llm_arch_name8llm_arch(i32 noundef %0) local_unnamed_addr #9 {
  %2 = load ptr, ptr getelementptr inbounds nuw (i8, ptr @_ZL14LLM_ARCH_NAMES, i64 16), align 8, !tbaa !12
  %.not10.i.i.i = icmp eq ptr %2, null
  br i1 %.not10.i.i.i, label %_ZNKSt3mapI8llm_archPKcSt4lessIS0_ESaISt4pairIKS0_S2_EEE4findERS6_.exit.thread, label %.lr.ph.i.i.i

.lr.ph.i.i.i:                                     ; preds = %1, %.lr.ph.i.i.i
  %.012.i.i.i = phi ptr [ %.1.i.i.i, %.lr.ph.i.i.i ], [ %2, %1 ]
  %.0811.i.i.i = phi ptr [ %.19.i.i.i, %.lr.ph.i.i.i ], [ getelementptr inbounds nuw (i8, ptr @_ZL14LLM_ARCH_NAMES, i64 8), %1 ]
  %3 = getelementptr inbounds nuw i8, ptr %.012.i.i.i, i64 32
  %4 = load i32, ptr %3, align 4, !tbaa !17
  %5 = icmp slt i32 %4, %0
  %.19.i.i.i = select i1 %5, ptr %.0811.i.i.i, ptr %.012.i.i.i
  %.1.in.v.i.i.i = select i1 %5, i64 24, i64 16
  %.1.in.i.i.i = getelementptr inbounds nuw i8, ptr %.012.i.i.i, i64 %.1.in.v.i.i.i
  %.1.i.i.i = load ptr, ptr %.1.in.i.i.i, align 8, !tbaa !16
  %.not.i.i.i = icmp eq ptr %.1.i.i.i, null
  br i1 %.not.i.i.i, label %_ZNKSt8_Rb_treeI8llm_archSt4pairIKS0_PKcESt10_Select1stIS5_ESt4lessIS0_ESaIS5_EE14_M_lower_boundEPKSt13_Rb_tree_nodeIS5_EPKSt18_Rb_tree_node_baseRS2_.exit.i.i, label %.lr.ph.i.i.i, !llvm.loop !72

_ZNKSt8_Rb_treeI8llm_archSt4pairIKS0_PKcESt10_Select1stIS5_ESt4lessIS0_ESaIS5_EE14_M_lower_boundEPKSt13_Rb_tree_nodeIS5_EPKSt18_Rb_tree_node_baseRS2_.exit.i.i: ; preds = %.lr.ph.i.i.i
  %6 = icmp eq ptr %.19.i.i.i, getelementptr inbounds nuw (i8, ptr @_ZL14LLM_ARCH_NAMES, i64 8)
  br i1 %6, label %_ZNKSt3mapI8llm_archPKcSt4lessIS0_ESaISt4pairIKS0_S2_EEE4findERS6_.exit.thread, label %7

7:                                                ; preds = %_ZNKSt8_Rb_treeI8llm_archSt4pairIKS0_PKcESt10_Select1stIS5_ESt4lessIS0_ESaIS5_EE14_M_lower_boundEPKSt13_Rb_tree_nodeIS5_EPKSt18_Rb_tree_node_baseRS2_.exit.i.i
  %8 = getelementptr inbounds nuw i8, ptr %.19.i.i.i, i64 32
  %9 = load i32, ptr %8, align 4, !tbaa !17
  %10 = icmp slt i32 %0, %9
  br i1 %10, label %_ZNKSt3mapI8llm_archPKcSt4lessIS0_ESaISt4pairIKS0_S2_EEE4findERS6_.exit.thread, label %_ZNKSt3mapI8llm_archPKcSt4lessIS0_ESaISt4pairIKS0_S2_EEE4findERS6_.exit

_ZNKSt3mapI8llm_archPKcSt4lessIS0_ESaISt4pairIKS0_S2_EEE4findERS6_.exit: ; preds = %7
  %11 = getelementptr inbounds nuw i8, ptr %.19.i.i.i, i64 40
  %12 = load ptr, ptr %11, align 8, !tbaa !85
  br label %_ZNKSt3mapI8llm_archPKcSt4lessIS0_ESaISt4pairIKS0_S2_EEE4findERS6_.exit.thread

_ZNKSt3mapI8llm_archPKcSt4lessIS0_ESaISt4pairIKS0_S2_EEE4findERS6_.exit.thread: ; preds = %7, %1, %_ZNKSt8_Rb_treeI8llm_archSt4pairIKS0_PKcESt10_Select1stIS5_ESt4lessIS0_ESaIS5_EE14_M_lower_boundEPKSt13_Rb_tree_nodeIS5_EPKSt18_Rb_tree_node_baseRS2_.exit.i.i, %_ZNKSt3mapI8llm_archPKcSt4lessIS0_ESaISt4pairIKS0_S2_EEE4findERS6_.exit
  %.0 = phi ptr [ %12, %_ZNKSt3mapI8llm_archPKcSt4lessIS0_ESaISt4pairIKS0_S2_EEE4findERS6_.exit ], [ @.str.363, %_ZNKSt8_Rb_treeI8llm_archSt4pairIKS0_PKcESt10_Select1stIS5_ESt4lessIS0_ESaIS5_EE14_M_lower_boundEPKSt13_Rb_tree_nodeIS5_EPKSt18_Rb_tree_node_baseRS2_.exit.i.i ], [ @.str.363, %1 ], [ @.str.363, %7 ]
  ret ptr %.0
}